target datalayout = "e-m:e-p270:32:32-p271:32:32-p272:64:64-i64:64-i128:128-f80:128-n8:16:32:64-S128"
target triple = "x86_64-pc-linux-gnu"

%"class.arrow::util::ArrowLog" = type <{ %"class.arrow::util::ArrowLogBase", ptr, i8, [7 x i8] }>
%"class.arrow::util::ArrowLogBase" = type { ptr }

@_ZTVN5arrow4util8ArrowLogE = unnamed_addr constant { [6 x ptr] } { [6 x ptr] [ptr null, ptr @_ZTIN5arrow4util8ArrowLogE, ptr @_ZN5arrow4util8ArrowLogD1Ev, ptr @_ZN5arrow4util8ArrowLogD0Ev, ptr @_ZNK5arrow4util8ArrowLog9IsEnabledEv, ptr @_ZN5arrow4util8ArrowLog6StreamEv] }, align 8

; Function Attrs: mustprogress nounwind uwtable
define linkonce_odr void @_ZN5arrow4util12ArrowLogBaseD2Ev(ptr noundef nonnull align 8 dereferenceable(8) %0) unnamed_addr #4 comdat align 2 {
  %2 = alloca ptr, align 8
  store ptr %0, ptr %2, align 8, !tbaa !30
  ret void
}

; Function Attrs: mustprogress nounwind uwtable
define void @_ZN5arrow4util8ArrowLogD2Ev(ptr noundef nonnull align 8 dereferenceable(17) %0) unnamed_addr #4 align 2 {
  %2 = alloca ptr, align 8
  store ptr %0, ptr %2, align 8, !tbaa !15
  %3 = load ptr, ptr %2, align 8
  store ptr getelementptr inbounds inrange(-16, 32) ({ [6 x ptr] }, ptr @_ZTVN5arrow4util8ArrowLogE, i32 0, i32 0, i32 2), ptr %3, align 8, !tbaa !21
  %4 = getelementptr inbounds nuw %"class.arrow::util::ArrowLog", ptr %3, i32 0, i32 1
  %5 = load ptr, ptr %4, align 8, !tbaa !23
  %6 = icmp ne ptr %5, null
  br i1 %6, label %7, label %17

7:                                                ; preds = %1
  %8 = getelementptr inbounds nuw %"class.arrow::util::ArrowLog", ptr %3, i32 0, i32 1
  %9 = load ptr, ptr %8, align 8, !tbaa !23
  %10 = icmp eq ptr %9, null
  br i1 %10, label %15, label %11

11:                                               ; preds = %7
  %12 = load ptr, ptr %9, align 8, !tbaa !21
  %13 = getelementptr inbounds ptr, ptr %12, i64 1
  %14 = load ptr, ptr %13, align 8
  call void %14(ptr noundef nonnull align 8 dereferenceable(13) %9) #3
  br label %15

15:                                               ; preds = %11, %7
  %16 = getelementptr inbounds nuw %"class.arrow::util::ArrowLog", ptr %3, i32 0, i32 1
  store ptr null, ptr %16, align 8, !tbaa !23
  br label %17

17:                                               ; preds = %15, %1
  call void @_ZN5arrow4util12ArrowLogBaseD2Ev(ptr noundef nonnull align 8 dereferenceable(8) %3) #3
  ret void
}