; Function Attrs: mustprogress nounwind uwtable
define void @_ZN5arrow4util8ArrowLogD2Ev(ptr noundef nonnull align 8 captures(none) dereferenceable(17) initializes((0, 8)) %0) unnamed_addr #3 align 2 {
  store ptr getelementptr inbounds nuw inrange(-16, 32) (i8, ptr @_ZTVN5arrow4util8ArrowLogE, i64 16), ptr %0, align 8, !tbaa !20
  %2 = getelementptr inbounds nuw i8, ptr %0, i64 8
  %3 = load ptr, ptr %2, align 8, !tbaa !22
  %.not = icmp eq ptr %3, null
  br i1 %.not, label %8, label %4

4:                                                ; preds = %1
  %5 = load ptr, ptr %3, align 8, !tbaa !20
  %6 = getelementptr inbounds nuw i8, ptr %5, i64 8
  %7 = load ptr, ptr %6, align 8
  tail call void %7(ptr noundef nonnull align 8 dereferenceable(13) %3) #21
  store ptr null, ptr %2, align 8, !tbaa !22
  br label %8

8:                                                ; preds = %4, %1
  ret void
}